target datalayout = "e-m:e-p270:32:32-p271:32:32-p272:64:64-i64:64-i128:128-f80:128-n8:16:32:64-S128"
target triple = "x86_64-pc-linux-gnu"

%struct.archive_read = type { %struct.archive, ptr, i32, i64, i64, %struct.archive_read_client, [16 x %struct.archive_read_filter_bidder], ptr, i32, i64, i32, i32, [16 x %struct.archive_format_descriptor], ptr, ptr, ptr, %struct.anon }
%struct.archive = type { i32, i32, ptr, i32, ptr, i32, i32, ptr, %struct.archive_string, ptr, i32, i32, ptr, ptr, i64, i64, i64, i8, i64 }
%struct.archive_string = type { ptr, i64, i64 }
%struct.archive_read_client = type { ptr, ptr, ptr, ptr, ptr, ptr, i32, i32, i64, ptr }
%struct.archive_read_filter_bidder = type { ptr, ptr, ptr }
%struct.archive_format_descriptor = type { ptr, ptr, ptr, ptr, ptr, ptr, ptr, ptr, ptr, ptr, ptr }
%struct.anon = type { ptr, ptr, i32, ptr, ptr }

@.str.19 = private unnamed_addr constant [31 x i8] c"__archive_read_register_format\00", align 1
@.str.20 = private unnamed_addr constant [41 x i8] c"Not enough slots for format registration\00", align 1

; Function Attrs: nounwind uwtable
define dso_local i32 @__archive_read_register_format(ptr noundef %0, ptr noundef %1, ptr noundef %2, ptr noundef %3, ptr noundef %4, ptr noundef %5, ptr noundef %6, ptr noundef %7, ptr noundef %8, ptr noundef %9, ptr noundef %10, ptr noundef %11) #0 {
  %13 = alloca i32, align 4
  %14 = alloca ptr, align 8
  %15 = alloca ptr, align 8
  %16 = alloca ptr, align 8
  %17 = alloca ptr, align 8
  %18 = alloca ptr, align 8
  %19 = alloca ptr, align 8
  %20 = alloca ptr, align 8
  %21 = alloca ptr, align 8
  %22 = alloca ptr, align 8
  %23 = alloca ptr, align 8
  %24 = alloca ptr, align 8
  %25 = alloca ptr, align 8
  %26 = alloca i32, align 4
  %27 = alloca i32, align 4
  %28 = alloca i32, align 4
  %29 = alloca i32, align 4
  store ptr %0, ptr %14, align 8, !tbaa !4
  store ptr %1, ptr %15, align 8, !tbaa !37
  store ptr %2, ptr %16, align 8, !tbaa !95
  store ptr %3, ptr %17, align 8, !tbaa !37
  store ptr %4, ptr %18, align 8, !tbaa !37
  store ptr %5, ptr %19, align 8, !tbaa !37
  store ptr %6, ptr %20, align 8, !tbaa !37
  store ptr %7, ptr %21, align 8, !tbaa !37
  store ptr %8, ptr %22, align 8, !tbaa !37
  store ptr %9, ptr %23, align 8, !tbaa !37
  store ptr %10, ptr %24, align 8, !tbaa !37
  store ptr %11, ptr %25, align 8, !tbaa !37
  call void @llvm.lifetime.start.p0(i64 4, ptr %26) #11
  call void @llvm.lifetime.start.p0(i64 4, ptr %27) #11
  br label %30

30:                                               ; preds = %12
  call void @llvm.lifetime.start.p0(i64 4, ptr %28) #11
  %31 = load ptr, ptr %14, align 8, !tbaa !4
  %32 = getelementptr inbounds nuw %struct.archive_read, ptr %31, i32 0, i32 0
  %33 = call i32 @__archive_check_magic(ptr noundef %32, i32 noundef 14594245, i32 noundef 1, ptr noundef @.str.19)
  store i32 %33, ptr %28, align 4, !tbaa !38
  %34 = load i32, ptr %28, align 4, !tbaa !38
  %35 = icmp eq i32 %34, -30
  br i1 %35, label %36, label %37

36:                                               ; preds = %30
  store i32 -30, ptr %13, align 4
  store i32 1, ptr %29, align 4
  br label %38

37:                                               ; preds = %30
  store i32 0, ptr %29, align 4
  br label %38

38:                                               ; preds = %37, %36
  call void @llvm.lifetime.end.p0(i64 4, ptr %28) #11
  %39 = load i32, ptr %29, align 4
  switch i32 %39, label %152 [
    i32 0, label %40
  ]

40:                                               ; preds = %38
  br label %41

41:                                               ; preds = %40
  br label %42

42:                                               ; preds = %41
  store i32 16, ptr %27, align 4, !tbaa !38
  store i32 0, ptr %26, align 4, !tbaa !38
  br label %43

43:                                               ; preds = %146, %42
  %44 = load i32, ptr %26, align 4, !tbaa !38
  %45 = load i32, ptr %27, align 4, !tbaa !38
  %46 = icmp slt i32 %44, %45
  br i1 %46, label %47, label %149

47:                                               ; preds = %43
  %48 = load ptr, ptr %14, align 8, !tbaa !4
  %49 = getelementptr inbounds nuw %struct.archive_read, ptr %48, i32 0, i32 12
  %50 = load i32, ptr %26, align 4, !tbaa !38
  %51 = sext i32 %50 to i64
  %52 = getelementptr inbounds [16 x %struct.archive_format_descriptor], ptr %49, i64 0, i64 %51
  %53 = getelementptr inbounds nuw %struct.archive_format_descriptor, ptr %52, i32 0, i32 2
  %54 = load ptr, ptr %53, align 8, !tbaa !80
  %55 = load ptr, ptr %17, align 8, !tbaa !37
  %56 = icmp eq ptr %54, %55
  br i1 %56, label %57, label %58

57:                                               ; preds = %47
  store i32 -20, ptr %13, align 4
  store i32 1, ptr %29, align 4
  br label %152

58:                                               ; preds = %47
  %59 = load ptr, ptr %14, align 8, !tbaa !4
  %60 = getelementptr inbounds nuw %struct.archive_read, ptr %59, i32 0, i32 12
  %61 = load i32, ptr %26, align 4, !tbaa !38
  %62 = sext i32 %61 to i64
  %63 = getelementptr inbounds [16 x %struct.archive_format_descriptor], ptr %60, i64 0, i64 %62
  %64 = getelementptr inbounds nuw %struct.archive_format_descriptor, ptr %63, i32 0, i32 2
  %65 = load ptr, ptr %64, align 8, !tbaa !80
  %66 = icmp eq ptr %65, null
  br i1 %66, label %67, label %145

67:                                               ; preds = %58
  %68 = load ptr, ptr %17, align 8, !tbaa !37
  %69 = load ptr, ptr %14, align 8, !tbaa !4
  %70 = getelementptr inbounds nuw %struct.archive_read, ptr %69, i32 0, i32 12
  %71 = load i32, ptr %26, align 4, !tbaa !38
  %72 = sext i32 %71 to i64
  %73 = getelementptr inbounds [16 x %struct.archive_format_descriptor], ptr %70, i64 0, i64 %72
  %74 = getelementptr inbounds nuw %struct.archive_format_descriptor, ptr %73, i32 0, i32 2
  store ptr %68, ptr %74, align 8, !tbaa !80
  %75 = load ptr, ptr %18, align 8, !tbaa !37
  %76 = load ptr, ptr %14, align 8, !tbaa !4
  %77 = getelementptr inbounds nuw %struct.archive_read, ptr %76, i32 0, i32 12
  %78 = load i32, ptr %26, align 4, !tbaa !38
  %79 = sext i32 %78 to i64
  %80 = getelementptr inbounds [16 x %struct.archive_format_descriptor], ptr %77, i64 0, i64 %79
  %81 = getelementptr inbounds nuw %struct.archive_format_descriptor, ptr %80, i32 0, i32 3
  store ptr %75, ptr %81, align 8, !tbaa !107
  %82 = load ptr, ptr %19, align 8, !tbaa !37
  %83 = load ptr, ptr %14, align 8, !tbaa !4
  %84 = getelementptr inbounds nuw %struct.archive_read, ptr %83, i32 0, i32 12
  %85 = load i32, ptr %26, align 4, !tbaa !38
  %86 = sext i32 %85 to i64
  %87 = getelementptr inbounds [16 x %struct.archive_format_descriptor], ptr %84, i64 0, i64 %86
  %88 = getelementptr inbounds nuw %struct.archive_format_descriptor, ptr %87, i32 0, i32 4
  store ptr %82, ptr %88, align 8, !tbaa !108
  %89 = load ptr, ptr %20, align 8, !tbaa !37
  %90 = load ptr, ptr %14, align 8, !tbaa !4
  %91 = getelementptr inbounds nuw %struct.archive_read, ptr %90, i32 0, i32 12
  %92 = load i32, ptr %26, align 4, !tbaa !38
  %93 = sext i32 %92 to i64
  %94 = getelementptr inbounds [16 x %struct.archive_format_descriptor], ptr %91, i64 0, i64 %93
  %95 = getelementptr inbounds nuw %struct.archive_format_descriptor, ptr %94, i32 0, i32 5
  store ptr %89, ptr %95, align 8, !tbaa !109
  %96 = load ptr, ptr %21, align 8, !tbaa !37
  %97 = load ptr, ptr %14, align 8, !tbaa !4
  %98 = getelementptr inbounds nuw %struct.archive_read, ptr %97, i32 0, i32 12
  %99 = load i32, ptr %26, align 4, !tbaa !38
  %100 = sext i32 %99 to i64
  %101 = getelementptr inbounds [16 x %struct.archive_format_descriptor], ptr %98, i64 0, i64 %100
  %102 = getelementptr inbounds nuw %struct.archive_format_descriptor, ptr %101, i32 0, i32 6
  store ptr %96, ptr %102, align 8, !tbaa !103
  %103 = load ptr, ptr %22, align 8, !tbaa !37
  %104 = load ptr, ptr %14, align 8, !tbaa !4
  %105 = getelementptr inbounds nuw %struct.archive_read, ptr %104, i32 0, i32 12
  %106 = load i32, ptr %26, align 4, !tbaa !38
  %107 = sext i32 %106 to i64
  %108 = getelementptr inbounds [16 x %struct.archive_format_descriptor], ptr %105, i64 0, i64 %107
  %109 = getelementptr inbounds nuw %struct.archive_format_descriptor, ptr %108, i32 0, i32 7
  store ptr %103, ptr %109, align 8, !tbaa !105
  %110 = load ptr, ptr %23, align 8, !tbaa !37
  %111 = load ptr, ptr %14, align 8, !tbaa !4
  %112 = getelementptr inbounds nuw %struct.archive_read, ptr %111, i32 0, i32 12
  %113 = load i32, ptr %26, align 4, !tbaa !38
  %114 = sext i32 %113 to i64
  %115 = getelementptr inbounds [16 x %struct.archive_format_descriptor], ptr %112, i64 0, i64 %114
  %116 = getelementptr inbounds nuw %struct.archive_format_descriptor, ptr %115, i32 0, i32 8
  store ptr %110, ptr %116, align 8, !tbaa !110
  %117 = load ptr, ptr %15, align 8, !tbaa !37
  %118 = load ptr, ptr %14, align 8, !tbaa !4
  %119 = getelementptr inbounds nuw %struct.archive_read, ptr %118, i32 0, i32 12
  %120 = load i32, ptr %26, align 4, !tbaa !38
  %121 = sext i32 %120 to i64
  %122 = getelementptr inbounds [16 x %struct.archive_format_descriptor], ptr %119, i64 0, i64 %121
  %123 = getelementptr inbounds nuw %struct.archive_format_descriptor, ptr %122, i32 0, i32 0
  store ptr %117, ptr %123, align 8, !tbaa !111
  %124 = load ptr, ptr %16, align 8, !tbaa !95
  %125 = load ptr, ptr %14, align 8, !tbaa !4
  %126 = getelementptr inbounds nuw %struct.archive_read, ptr %125, i32 0, i32 12
  %127 = load i32, ptr %26, align 4, !tbaa !38
  %128 = sext i32 %127 to i64
  %129 = getelementptr inbounds [16 x %struct.archive_format_descriptor], ptr %126, i64 0, i64 %128
  %130 = getelementptr inbounds nuw %struct.archive_format_descriptor, ptr %129, i32 0, i32 1
  store ptr %124, ptr %130, align 8, !tbaa !112
  %131 = load ptr, ptr %24, align 8, !tbaa !37
  %132 = load ptr, ptr %14, align 8, !tbaa !4
  %133 = getelementptr inbounds nuw %struct.archive_read, ptr %132, i32 0, i32 12
  %134 = load i32, ptr %26, align 4, !tbaa !38
  %135 = sext i32 %134 to i64
  %136 = getelementptr inbounds [16 x %struct.archive_format_descriptor], ptr %133, i64 0, i64 %135
  %137 = getelementptr inbounds nuw %struct.archive_format_descriptor, ptr %136, i32 0, i32 9
  store ptr %131, ptr %137, align 8, !tbaa !94
  %138 = load ptr, ptr %25, align 8, !tbaa !37
  %139 = load ptr, ptr %14, align 8, !tbaa !4
  %140 = getelementptr inbounds nuw %struct.archive_read, ptr %139, i32 0, i32 12
  %141 = load i32, ptr %26, align 4, !tbaa !38
  %142 = sext i32 %141 to i64
  %143 = getelementptr inbounds [16 x %struct.archive_format_descriptor], ptr %140, i64 0, i64 %142
  %144 = getelementptr inbounds nuw %struct.archive_format_descriptor, ptr %143, i32 0, i32 10
  store ptr %138, ptr %144, align 8, !tbaa !93
  store i32 0, ptr %13, align 4
  store i32 1, ptr %29, align 4
  br label %152

145:                                              ; preds = %58
  br label %146

146:                                              ; preds = %145
  %147 = load i32, ptr %26, align 4, !tbaa !38
  %148 = add nsw i32 %147, 1
  store i32 %148, ptr %26, align 4, !tbaa !38
  br label %43, !llvm.loop !113

149:                                              ; preds = %43
  %150 = load ptr, ptr %14, align 8, !tbaa !4
  %151 = getelementptr inbounds nuw %struct.archive_read, ptr %150, i32 0, i32 0
  call void (ptr, i32, ptr, ...) @archive_set_error(ptr noundef %151, i32 noundef 12, ptr noundef @.str.20)
  store i32 -30, ptr %13, align 4
  store i32 1, ptr %29, align 4
  br label %152

152:                                              ; preds = %149, %67, %57, %38
  call void @llvm.lifetime.end.p0(i64 4, ptr %27) #11
  call void @llvm.lifetime.end.p0(i64 4, ptr %26) #11
  %153 = load i32, ptr %13, align 4
  ret i32 %153
}