; Function Attrs: nounwind uwtable
define dso_local range(i32 -30, 1) i32 @__archive_read_register_format(ptr noundef %0, ptr noundef %1, ptr noundef %2, ptr noundef %3, ptr noundef %4, ptr noundef %5, ptr noundef %6, ptr noundef %7, ptr noundef %8, ptr noundef %9, ptr noundef %10, ptr noundef %11) local_unnamed_addr #0 {
  %13 = tail call i32 @__archive_check_magic(ptr noundef %0, i32 noundef 14594245, i32 noundef 1, ptr noundef nonnull @.str.19) #15
  %.not = icmp eq i32 %13, -30
  br i1 %.not, label %.loopexit, label %.preheader

.preheader:                                       ; preds = %12
  %14 = getelementptr inbounds nuw i8, ptr %0, i64 664
  br label %16

15:                                               ; preds = %21
  %indvars.iv.next = add nuw nsw i64 %indvars.iv, 1
  %exitcond.not = icmp eq i64 %indvars.iv.next, 16
  br i1 %exitcond.not, label %34, label %16, !llvm.loop !98

16:                                               ; preds = %.preheader, %15
  %indvars.iv = phi i64 [ 0, %.preheader ], [ %indvars.iv.next, %15 ]
  %17 = getelementptr inbounds nuw [16 x %struct.archive_format_descriptor], ptr %14, i64 0, i64 %indvars.iv
  %18 = getelementptr inbounds nuw i8, ptr %17, i64 16
  %19 = load ptr, ptr %18, align 8, !tbaa !74
  %20 = icmp eq ptr %19, %3
  br i1 %20, label %.loopexit, label %21

21:                                               ; preds = %16
  %22 = icmp eq ptr %19, null
  br i1 %22, label %23, label %15

23:                                               ; preds = %21
  %24 = getelementptr inbounds nuw i8, ptr %17, i64 16
  store ptr %3, ptr %24, align 8, !tbaa !74
  %25 = getelementptr inbounds nuw i8, ptr %17, i64 24
  store ptr %4, ptr %25, align 8, !tbaa !99
  %26 = getelementptr inbounds nuw i8, ptr %17, i64 32
  store ptr %5, ptr %26, align 8, !tbaa !100
  %27 = getelementptr inbounds nuw i8, ptr %17, i64 40
  store ptr %6, ptr %27, align 8, !tbaa !101
  %28 = getelementptr inbounds nuw i8, ptr %17, i64 48
  store ptr %7, ptr %28, align 8, !tbaa !95
  %29 = getelementptr inbounds nuw i8, ptr %17, i64 56
  store ptr %8, ptr %29, align 8, !tbaa !97
  %30 = getelementptr inbounds nuw i8, ptr %17, i64 64
  store ptr %9, ptr %30, align 8, !tbaa !102
  store ptr %1, ptr %17, align 8, !tbaa !103
  %31 = getelementptr inbounds nuw i8, ptr %17, i64 8
  store ptr %2, ptr %31, align 8, !tbaa !104
  %32 = getelementptr inbounds nuw i8, ptr %17, i64 72
  store ptr %10, ptr %32, align 8, !tbaa !85
  %33 = getelementptr inbounds nuw i8, ptr %17, i64 80
  store ptr %11, ptr %33, align 8, !tbaa !86
  br label %.loopexit

34:                                               ; preds = %15
  tail call void (ptr, i32, ptr, ...) @archive_set_error(ptr noundef nonnull %0, i32 noundef 12, ptr noundef nonnull @.str.20) #15
  br label %.loopexit

.loopexit:                                        ; preds = %16, %12, %34, %23
  %.1 = phi i32 [ 0, %23 ], [ -30, %34 ], [ -30, %12 ], [ -20, %16 ]
  ret i32 %.1
}